target datalayout = "e-m:e-p270:32:32-p271:32:32-p272:64:64-i64:64-i128:128-f80:128-n8:16:32:64-S128"
target triple = "x86_64-unknown-linux-gnu"

%"class.std::set.0" = type { %"class.std::_Rb_tree.1" }
%"class.std::_Rb_tree.1" = type { %"struct.std::_Rb_tree<QuantLib::Observer *, QuantLib::Observer *, std::_Identity<QuantLib::Observer *>, std::less<QuantLib::Observer *>>::_Rb_tree_impl" }
%"struct.std::_Rb_tree<QuantLib::Observer *, QuantLib::Observer *, std::_Identity<QuantLib::Observer *>, std::less<QuantLib::Observer *>>::_Rb_tree_impl" = type { [8 x i8], %"struct.std::_Rb_tree_header" }
%"struct.std::_Rb_tree_header" = type { %"struct.std::_Rb_tree_node_base", i64 }
%"struct.std::_Rb_tree_node_base" = type { i32, ptr, ptr, ptr }
%"class.std::set" = type { %"class.std::_Rb_tree" }
%"class.std::_Rb_tree" = type { %"struct.std::_Rb_tree<boost::shared_ptr<QuantLib::Observable>, boost::shared_ptr<QuantLib::Observable>, std::_Identity<boost::shared_ptr<QuantLib::Observable>>, std::less<boost::shared_ptr<QuantLib::Observable>>>::_Rb_tree_impl" }
%"struct.std::_Rb_tree<boost::shared_ptr<QuantLib::Observable>, boost::shared_ptr<QuantLib::Observable>, std::_Identity<boost::shared_ptr<QuantLib::Observable>>, std::less<boost::shared_ptr<QuantLib::Observable>>>::_Rb_tree_impl" = type { [8 x i8], %"struct.std::_Rb_tree_header" }
%"class.boost::detail::shared_count" = type { ptr }
%"class.QuantLib::Observable" = type { ptr, %"class.std::set.0" }
%"class.QuantLib::Observer" = type { ptr, %"class.std::set" }
%"class.QuantLib::SquareRootCLVModel" = type { %"class.QuantLib::LazyObject.base", double, double, %"class.boost::shared_ptr.18", %"class.boost::shared_ptr.14", %"class.std::vector", i64, %"class.boost::shared_ptr.19", %"class.std::function", %"class.QuantLib::Observable", %"class.QuantLib::Observer" }
%"class.QuantLib::LazyObject.base" = type <{ ptr, i8, i8, i8, i8 }>
%"class.boost::shared_ptr.18" = type { ptr, %"class.boost::detail::shared_count" }
%"class.boost::shared_ptr.14" = type { ptr, %"class.boost::detail::shared_count" }
%"class.std::vector" = type { %"struct.std::_Vector_base" }
%"struct.std::_Vector_base" = type { %"struct.std::_Vector_base<QuantLib::Date, std::allocator<QuantLib::Date>>::_Vector_impl" }
%"struct.std::_Vector_base<QuantLib::Date, std::allocator<QuantLib::Date>>::_Vector_impl" = type { %"struct.std::_Vector_base<QuantLib::Date, std::allocator<QuantLib::Date>>::_Vector_impl_data" }
%"struct.std::_Vector_base<QuantLib::Date, std::allocator<QuantLib::Date>>::_Vector_impl_data" = type { ptr, ptr, ptr }
%"class.boost::shared_ptr.19" = type { ptr, %"class.boost::detail::shared_count" }
%"class.std::function" = type { %"class.std::_Function_base", ptr }
%"class.std::_Function_base" = type { %"union.std::_Any_data", ptr }
%"union.std::_Any_data" = type { %"union.std::_Nocopy_types" }
%"union.std::_Nocopy_types" = type { { i64, i64 } }
%"struct.std::pair" = type { double, double }
%"class.QuantLib::SquareRootProcess" = type { %"class.QuantLib::StochasticProcess1D", double, double, double, double }
%"class.QuantLib::StochasticProcess1D" = type { %"class.QuantLib::StochasticProcess", %"class.boost::shared_ptr.21" }
%"class.QuantLib::StochasticProcess" = type { %"class.QuantLib::Observer", %"class.QuantLib::Observable", %"class.boost::shared_ptr.20" }
%"class.boost::shared_ptr.20" = type { ptr, %"class.boost::detail::shared_count" }
%"class.boost::shared_ptr.21" = type { ptr, %"class.boost::detail::shared_count" }

@.str.18 = private unnamed_addr constant [8 x i8] c"px != 0\00", align 1
@.str.19 = private unnamed_addr constant [102 x i8] c"generated/home/dtcxzyw/WorkSpace/SDK/vcpkg/installed/x64-linux/include/boost/smart_ptr/shared_ptr.hpp\00", align 1
@__PRETTY_FUNCTION__._ZNK5boost10shared_ptrIN8QuantLib17SquareRootProcessEEptEv = private unnamed_addr constant [151 x i8] c"typename boost::detail::sp_member_access<T>::type boost::shared_ptr<QuantLib::SquareRootProcess>::operator->() const [T = QuantLib::SquareRootProcess]\00", align 1

; Function Attrs: mustprogress nounwind uwtable
define linkonce_odr void @_ZNSt4pairIddEC2IddTnNSt9enable_ifIXaaclsr5_PCCPE18_ConstructiblePairIT_T0_EEclsr5_PCCPE26_ImplicitlyConvertiblePairIS3_S4_EEEbE4typeELb1EEERKdS8_(ptr noundef nonnull align 8 dereferenceable(16) %this, ptr noundef nonnull align 8 dereferenceable(8) %__a, ptr noundef nonnull align 8 dereferenceable(8) %__b) unnamed_addr #1 comdat align 2 {
entry:
  %this.addr = alloca ptr, align 8
  %__a.addr = alloca ptr, align 8
  %__b.addr = alloca ptr, align 8
  store ptr %this, ptr %this.addr, align 8, !tbaa !3
  store ptr %__a, ptr %__a.addr, align 8, !tbaa !3
  store ptr %__b, ptr %__b.addr, align 8, !tbaa !3
  %this1 = load ptr, ptr %this.addr, align 8
  %first = getelementptr inbounds nuw %"struct.std::pair", ptr %this1, i32 0, i32 0
  %0 = load ptr, ptr %__a.addr, align 8, !tbaa !3
  %1 = load double, ptr %0, align 8, !tbaa !26
  store double %1, ptr %first, align 8, !tbaa !72
  %second = getelementptr inbounds nuw %"struct.std::pair", ptr %this1, i32 0, i32 1
  %2 = load ptr, ptr %__b.addr, align 8, !tbaa !3
  %3 = load double, ptr %2, align 8, !tbaa !26
  store double %3, ptr %second, align 8, !tbaa !74
  ret void
}

; Function Attrs: mustprogress uwtable
define linkonce_odr { double, double } @_ZSt9make_pairIRKdS1_ESt4pairINSt25__strip_reference_wrapperINSt5decayIT_E4typeEE6__typeENS3_INS4_IT0_E4typeEE6__typeEEOS5_OSA_(ptr noundef nonnull align 8 dereferenceable(8) %__x, ptr noundef nonnull align 8 dereferenceable(8) %__y) #2 comdat {
entry:
  %retval = alloca %"struct.std::pair", align 8
  %__x.addr = alloca ptr, align 8
  %__y.addr = alloca ptr, align 8
  store ptr %__x, ptr %__x.addr, align 8, !tbaa !3
  store ptr %__y, ptr %__y.addr, align 8, !tbaa !3
  %0 = load ptr, ptr %__x.addr, align 8, !tbaa !3
  %1 = load ptr, ptr %__y.addr, align 8, !tbaa !3
  call void @_ZNSt4pairIddEC2IddTnNSt9enable_ifIXaaclsr5_PCCPE18_ConstructiblePairIT_T0_EEclsr5_PCCPE26_ImplicitlyConvertiblePairIS3_S4_EEEbE4typeELb1EEERKdS8_(ptr noundef nonnull align 8 dereferenceable(16) %retval, ptr noundef nonnull align 8 dereferenceable(8) %0, ptr noundef nonnull align 8 dereferenceable(8) %1)
  %2 = load { double, double }, ptr %retval, align 8
  ret { double, double } %2
}

; Function Attrs: mustprogress nounwind uwtable
define linkonce_odr noundef double @_ZNK8QuantLib17SquareRootProcess5sigmaEv(ptr noundef nonnull align 8 dereferenceable(176) %this) #1 comdat align 2 {
entry:
  %this.addr = alloca ptr, align 8
  store ptr %this, ptr %this.addr, align 8, !tbaa !3
  %this1 = load ptr, ptr %this.addr, align 8
  %volatility_ = getelementptr inbounds nuw %"class.QuantLib::SquareRootProcess", ptr %this1, i32 0, i32 4
  %0 = load double, ptr %volatility_, align 8, !tbaa !71
  ret double %0
}

; Function Attrs: mustprogress nounwind uwtable
define linkonce_odr noundef double @_ZNK8QuantLib17SquareRootProcess1bEv(ptr noundef nonnull align 8 dereferenceable(176) %this) #1 comdat align 2 {
entry:
  %this.addr = alloca ptr, align 8
  store ptr %this, ptr %this.addr, align 8, !tbaa !3
  %this1 = load ptr, ptr %this.addr, align 8
  %mean_ = getelementptr inbounds nuw %"class.QuantLib::SquareRootProcess", ptr %this1, i32 0, i32 2
  %0 = load double, ptr %mean_, align 8, !tbaa !70
  ret double %0
}

; Function Attrs: mustprogress nounwind uwtable
define linkonce_odr noundef double @_ZNK8QuantLib17SquareRootProcess1aEv(ptr noundef nonnull align 8 dereferenceable(176) %this) #1 comdat align 2 {
entry:
  %this.addr = alloca ptr, align 8
  store ptr %this, ptr %this.addr, align 8, !tbaa !3
  %this1 = load ptr, ptr %this.addr, align 8
  %speed_ = getelementptr inbounds nuw %"class.QuantLib::SquareRootProcess", ptr %this1, i32 0, i32 3
  %0 = load double, ptr %speed_, align 8, !tbaa !49
  ret double %0
}

; Function Attrs: mustprogress uwtable
define linkonce_odr noundef ptr @_ZNK5boost10shared_ptrIN8QuantLib17SquareRootProcessEEptEv(ptr noundef nonnull align 8 dereferenceable(16) %this) #2 comdat align 2 {
entry:
  %this.addr = alloca ptr, align 8
  store ptr %this, ptr %this.addr, align 8, !tbaa !3
  %this1 = load ptr, ptr %this.addr, align 8
  %px = getelementptr inbounds nuw %"class.boost::shared_ptr.14", ptr %this1, i32 0, i32 0
  %0 = load ptr, ptr %px, align 8, !tbaa !42
  %cmp = icmp ne ptr %0, null
  %lnot = xor i1 %cmp, true
  %lnot2 = xor i1 %lnot, true
  %conv = zext i1 %lnot2 to i64
  %expval = call i64 @llvm.expect.i64(i64 %conv, i64 1)
  %tobool = icmp ne i64 %expval, 0
  br i1 %tobool, label %cond.true, label %cond.false

cond.true:                                        ; preds = %entry
  br label %cond.end

cond.false:                                       ; preds = %entry
  call void @_ZN5boost16assertion_failedEPKcS1_S1_l(ptr noundef @.str.18, ptr noundef @__PRETTY_FUNCTION__._ZNK5boost10shared_ptrIN8QuantLib17SquareRootProcessEEptEv, ptr noundef @.str.19, i64 noundef 784)
  br label %cond.end

cond.end:                                         ; preds = %cond.false, %cond.true
  %px3 = getelementptr inbounds nuw %"class.boost::shared_ptr.14", ptr %this1, i32 0, i32 0
  %1 = load ptr, ptr %px3, align 8, !tbaa !42
  ret ptr %1
}

; Function Attrs: mustprogress uwtable
define linkonce_odr noundef ptr @_ZNK5boost10shared_ptrIN8QuantLib30GeneralizedBlackScholesProcessEEptEv(ptr noundef nonnull align 8 dereferenceable(16) %this) #2 comdat align 2 {
entry:
  %this.addr = alloca ptr, align 8
  store ptr %this, ptr %this.addr, align 8, !tbaa !3
  %this1 = load ptr, ptr %this.addr, align 8
  %px = getelementptr inbounds nuw %"class.boost::shared_ptr.18", ptr %this1, i32 0, i32 0
  %0 = load ptr, ptr %px, align 8, !tbaa !41
  %cmp = icmp ne ptr %0, null
  %lnot = xor i1 %cmp, true
  %lnot2 = xor i1 %lnot, true
  %conv = zext i1 %lnot2 to i64
  %expval = call i64 @llvm.expect.i64(i64 %conv, i64 1)
  %tobool = icmp ne i64 %expval, 0
  br i1 %tobool, label %cond.true, label %cond.false

cond.true:                                        ; preds = %entry
  br label %cond.end

cond.false:                                       ; preds = %entry
  call void @_ZN5boost16assertion_failedEPKcS1_S1_l(ptr noundef @.str.18, ptr noundef @__PRETTY_FUNCTION__._ZNK5boost10shared_ptrIN8QuantLib30GeneralizedBlackScholesProcessEEptEv, ptr noundef @.str.19, i64 noundef 784)
  br label %cond.end

cond.end:                                         ; preds = %cond.false, %cond.true
  %px3 = getelementptr inbounds nuw %"class.boost::shared_ptr.18", ptr %this1, i32 0, i32 0
  %1 = load ptr, ptr %px3, align 8, !tbaa !41
  ret ptr %1
}

; Function Attrs: mustprogress uwtable
define { double, double } @_ZNK8QuantLib18SquareRootCLVModel26nonCentralChiSquaredParamsERKNS_4DateE(ptr noundef nonnull align 8 dereferenceable(144) %this, ptr noundef nonnull align 8 dereferenceable(8) %d) #2 align 2 {
entry:
  %retval = alloca %"struct.std::pair", align 8
  %this.addr = alloca ptr, align 8
  %d.addr = alloca ptr, align 8
  %t = alloca double, align 8
  %kappa = alloca double, align 8
  %theta = alloca double, align 8
  %sigma = alloca double, align 8
  %df = alloca double, align 8
  %ncp = alloca double, align 8
  store ptr %this, ptr %this.addr, align 8, !tbaa !3
  store ptr %d, ptr %d.addr, align 8, !tbaa !3
  %this1 = load ptr, ptr %this.addr, align 8
  call void @llvm.lifetime.start.p0(i64 8, ptr %t) #15
  %bsProcess_ = getelementptr inbounds nuw %"class.QuantLib::SquareRootCLVModel", ptr %this1, i32 0, i32 3
  %call = call noundef ptr @_ZNK5boost10shared_ptrIN8QuantLib30GeneralizedBlackScholesProcessEEptEv(ptr noundef nonnull align 8 dereferenceable(16) %bsProcess_)
  %0 = load ptr, ptr %d.addr, align 8, !tbaa !3
  %vtable = load ptr, ptr %call, align 8, !tbaa !12
  %vfn = getelementptr inbounds ptr, ptr %vtable, i64 14
  %1 = load ptr, ptr %vfn, align 8
  %call2 = call noundef double %1(ptr noundef nonnull align 8 dereferenceable(250) %call, ptr noundef nonnull align 8 dereferenceable(8) %0)
  store double %call2, ptr %t, align 8, !tbaa !26
  call void @llvm.lifetime.start.p0(i64 8, ptr %kappa) #15
  %sqrtProcess_ = getelementptr inbounds nuw %"class.QuantLib::SquareRootCLVModel", ptr %this1, i32 0, i32 4
  %call3 = call noundef ptr @_ZNK5boost10shared_ptrIN8QuantLib17SquareRootProcessEEptEv(ptr noundef nonnull align 8 dereferenceable(16) %sqrtProcess_)
  %call4 = call noundef double @_ZNK8QuantLib17SquareRootProcess1aEv(ptr noundef nonnull align 8 dereferenceable(176) %call3)
  store double %call4, ptr %kappa, align 8, !tbaa !26
  call void @llvm.lifetime.start.p0(i64 8, ptr %theta) #15
  %sqrtProcess_5 = getelementptr inbounds nuw %"class.QuantLib::SquareRootCLVModel", ptr %this1, i32 0, i32 4
  %call6 = call noundef ptr @_ZNK5boost10shared_ptrIN8QuantLib17SquareRootProcessEEptEv(ptr noundef nonnull align 8 dereferenceable(16) %sqrtProcess_5)
  %call7 = call noundef double @_ZNK8QuantLib17SquareRootProcess1bEv(ptr noundef nonnull align 8 dereferenceable(176) %call6)
  store double %call7, ptr %theta, align 8, !tbaa !26
  call void @llvm.lifetime.start.p0(i64 8, ptr %sigma) #15
  %sqrtProcess_8 = getelementptr inbounds nuw %"class.QuantLib::SquareRootCLVModel", ptr %this1, i32 0, i32 4
  %call9 = call noundef ptr @_ZNK5boost10shared_ptrIN8QuantLib17SquareRootProcessEEptEv(ptr noundef nonnull align 8 dereferenceable(16) %sqrtProcess_8)
  %call10 = call noundef double @_ZNK8QuantLib17SquareRootProcess5sigmaEv(ptr noundef nonnull align 8 dereferenceable(176) %call9)
  store double %call10, ptr %sigma, align 8, !tbaa !26
  call void @llvm.lifetime.start.p0(i64 8, ptr %df) #15
  %2 = load double, ptr %theta, align 8, !tbaa !26
  %mul = fmul double 4.000000e+00, %2
  %3 = load double, ptr %kappa, align 8, !tbaa !26
  %mul11 = fmul double %mul, %3
  %4 = load double, ptr %sigma, align 8, !tbaa !26
  %5 = load double, ptr %sigma, align 8, !tbaa !26
  %mul12 = fmul double %4, %5
  %div = fdiv double %mul11, %mul12
  store double %div, ptr %df, align 8, !tbaa !26
  call void @llvm.lifetime.start.p0(i64 8, ptr %ncp) #15
  %6 = load double, ptr %kappa, align 8, !tbaa !26
  %mul13 = fmul double 4.000000e+00, %6
  %7 = load double, ptr %kappa, align 8, !tbaa !26
  %fneg = fneg double %7
  %8 = load double, ptr %t, align 8, !tbaa !26
  %mul14 = fmul double %fneg, %8
  %call15 = call double @exp(double noundef %mul14) #15, !tbaa !47
  %mul16 = fmul double %mul13, %call15
  %9 = load double, ptr %sigma, align 8, !tbaa !26
  %10 = load double, ptr %sigma, align 8, !tbaa !26
  %mul17 = fmul double %9, %10
  %11 = load double, ptr %kappa, align 8, !tbaa !26
  %fneg18 = fneg double %11
  %12 = load double, ptr %t, align 8, !tbaa !26
  %mul19 = fmul double %fneg18, %12
  %call20 = call double @exp(double noundef %mul19) #15, !tbaa !47
  %sub = fsub double 1.000000e+00, %call20
  %mul21 = fmul double %mul17, %sub
  %div22 = fdiv double %mul16, %mul21
  %sqrtProcess_23 = getelementptr inbounds nuw %"class.QuantLib::SquareRootCLVModel", ptr %this1, i32 0, i32 4
  %call24 = call noundef ptr @_ZNK5boost10shared_ptrIN8QuantLib17SquareRootProcessEEptEv(ptr noundef nonnull align 8 dereferenceable(16) %sqrtProcess_23)
  %vtable25 = load ptr, ptr %call24, align 8, !tbaa !12
  %vfn26 = getelementptr inbounds ptr, ptr %vtable25, i64 15
  %13 = load ptr, ptr %vfn26, align 8
  %call27 = call noundef double %13(ptr noundef nonnull align 8 dereferenceable(176) %call24)
  %mul28 = fmul double %div22, %call27
  store double %mul28, ptr %ncp, align 8, !tbaa !26
  %call29 = call { double, double } @_ZSt9make_pairIRKdS1_ESt4pairINSt25__strip_reference_wrapperINSt5decayIT_E4typeEE6__typeENS3_INS4_IT0_E4typeEE6__typeEEOS5_OSA_(ptr noundef nonnull align 8 dereferenceable(8) %df, ptr noundef nonnull align 8 dereferenceable(8) %ncp)
  %14 = getelementptr inbounds nuw { double, double }, ptr %retval, i32 0, i32 0
  %15 = extractvalue { double, double } %call29, 0
  store double %15, ptr %14, align 8
  %16 = getelementptr inbounds nuw { double, double }, ptr %retval, i32 0, i32 1
  %17 = extractvalue { double, double } %call29, 1
  store double %17, ptr %16, align 8
  call void @llvm.lifetime.end.p0(i64 8, ptr %ncp) #15
  call void @llvm.lifetime.end.p0(i64 8, ptr %df) #15
  call void @llvm.lifetime.end.p0(i64 8, ptr %sigma) #15
  call void @llvm.lifetime.end.p0(i64 8, ptr %theta) #15
  call void @llvm.lifetime.end.p0(i64 8, ptr %kappa) #15
  call void @llvm.lifetime.end.p0(i64 8, ptr %t) #15
  %18 = load { double, double }, ptr %retval, align 8
  ret { double, double } %18
}