; Function Attrs: mustprogress uwtable
define { double, double } @_ZNK8QuantLib18SquareRootCLVModel26nonCentralChiSquaredParamsERKNS_4DateE(ptr nocapture noundef nonnull readonly align 8 dereferenceable(144) %this, ptr noundef nonnull align 8 dereferenceable(8) %d) local_unnamed_addr #6 align 2 {
entry:
  %bsProcess_ = getelementptr inbounds nuw i8, ptr %this, i64 32
  %0 = load ptr, ptr %bsProcess_, align 8, !tbaa !59
  %cmp.not.i = icmp eq ptr %0, null
  br i1 %cmp.not.i, label %cond.false.i, label %_ZNK5boost10shared_ptrIN8QuantLib30GeneralizedBlackScholesProcessEEptEv.exit, !prof !74

cond.false.i:                                     ; preds = %entry
  tail call void @_ZN5boost16assertion_failedEPKcS1_S1_l(ptr noundef nonnull @.str.18, ptr noundef nonnull @__PRETTY_FUNCTION__._ZNK5boost10shared_ptrIN8QuantLib30GeneralizedBlackScholesProcessEEptEv, ptr noundef nonnull @.str.19, i64 noundef 784)
  %.pre.i = load ptr, ptr %bsProcess_, align 8, !tbaa !59
  br label %_ZNK5boost10shared_ptrIN8QuantLib30GeneralizedBlackScholesProcessEEptEv.exit

_ZNK5boost10shared_ptrIN8QuantLib30GeneralizedBlackScholesProcessEEptEv.exit: ; preds = %entry, %cond.false.i
  %1 = phi ptr [ %0, %entry ], [ %.pre.i, %cond.false.i ]
  %vtable = load ptr, ptr %1, align 8, !tbaa !35
  %vfn = getelementptr inbounds i8, ptr %vtable, i64 112
  %2 = load ptr, ptr %vfn, align 8
  %call2 = tail call noundef double %2(ptr noundef nonnull align 8 dereferenceable(250) %1, ptr noundef nonnull align 8 dereferenceable(8) %d)
  %sqrtProcess_ = getelementptr inbounds nuw i8, ptr %this, i64 48
  %3 = load ptr, ptr %sqrtProcess_, align 8, !tbaa !60
  %cmp.not.i8 = icmp eq ptr %3, null
  br i1 %cmp.not.i8, label %_ZNK5boost10shared_ptrIN8QuantLib17SquareRootProcessEEptEv.exit14, label %_ZNK5boost10shared_ptrIN8QuantLib17SquareRootProcessEEptEv.exit22, !prof !74

_ZNK5boost10shared_ptrIN8QuantLib17SquareRootProcessEEptEv.exit14: ; preds = %_ZNK5boost10shared_ptrIN8QuantLib30GeneralizedBlackScholesProcessEEptEv.exit
  tail call void @_ZN5boost16assertion_failedEPKcS1_S1_l(ptr noundef nonnull @.str.18, ptr noundef nonnull @__PRETTY_FUNCTION__._ZNK5boost10shared_ptrIN8QuantLib17SquareRootProcessEEptEv, ptr noundef nonnull @.str.19, i64 noundef 784)
  %.pre.i10 = load ptr, ptr %sqrtProcess_, align 8, !tbaa !60
  br label %_ZNK5boost10shared_ptrIN8QuantLib17SquareRootProcessEEptEv.exit22

_ZNK5boost10shared_ptrIN8QuantLib17SquareRootProcessEEptEv.exit22: ; preds = %_ZNK5boost10shared_ptrIN8QuantLib17SquareRootProcessEEptEv.exit14, %_ZNK5boost10shared_ptrIN8QuantLib30GeneralizedBlackScholesProcessEEptEv.exit
  %4 = phi ptr [ %.pre.i10, %_ZNK5boost10shared_ptrIN8QuantLib17SquareRootProcessEEptEv.exit14 ], [ %3, %_ZNK5boost10shared_ptrIN8QuantLib30GeneralizedBlackScholesProcessEEptEv.exit ]
  %.in27 = getelementptr inbounds nuw i8, ptr %4, i64 160
  %5 = load double, ptr %.in27, align 8, !tbaa !75
  %.in = getelementptr inbounds nuw i8, ptr %4, i64 152
  %6 = load double, ptr %.in, align 8, !tbaa !88
  %volatility_.i = getelementptr inbounds nuw i8, ptr %4, i64 168
  %7 = load double, ptr %volatility_.i, align 8, !tbaa !89
  %fneg = fneg double %5
  %mul14 = fmul double %call2, %fneg
  %call15 = tail call double @exp(double noundef %mul14) #34, !tbaa !90
  %call20 = tail call double @exp(double noundef %mul14) #34, !tbaa !90
  %mul13 = fmul double %5, 4.000000e+00
  %mul16 = fmul double %mul13, %call15
  %mul12 = fmul double %7, %7
  %sub = fsub double 1.000000e+00, %call20
  %mul21 = fmul double %mul12, %sub
  %div22 = fdiv double %mul16, %mul21
  %mul = fmul double %6, 4.000000e+00
  %mul11 = fmul double %5, %mul
  %div = fdiv double %mul11, %mul12
  %vtable25 = load ptr, ptr %4, align 8, !tbaa !35
  %vfn26 = getelementptr inbounds i8, ptr %vtable25, i64 120
  %8 = load ptr, ptr %vfn26, align 8
  %call27 = tail call noundef double %8(ptr noundef nonnull align 8 dereferenceable(176) %4)
  %mul28 = fmul double %div22, %call27
  %.fca.0.insert.i = insertvalue { double, double } poison, double %div, 0
  %.fca.1.insert.i = insertvalue { double, double } %.fca.0.insert.i, double %mul28, 1
  ret { double, double } %.fca.1.insert.i
}